target datalayout = "e-m:e-p270:32:32-p271:32:32-p272:64:64-i64:64-i128:128-f80:128-n8:16:32:64-S128"
target triple = "x86_64-pc-linux-gnu"

%struct.dt_imageio_png_t = type { %struct.dt_imageio_module_data_t, i32, i32, ptr, ptr, ptr }
%struct.dt_imageio_module_data_t = type { i32, i32, i32, i32, [128 x i8], i32 }
%struct.__jmp_buf_tag = type { [8 x i64], i32, %struct.__sigset_t }
%struct.__sigset_t = type { [16 x i64] }

; Function Attrs: nounwind uwtable
define i32 @read_image(ptr noundef %0, ptr noundef %1) #0 {
  %3 = alloca i32, align 4
  %4 = alloca ptr, align 8
  %5 = alloca ptr, align 8
  %6 = alloca ptr, align 8
  %7 = alloca i32, align 4
  %8 = alloca ptr, align 8
  %9 = alloca i64, align 8
  %10 = alloca i32, align 4
  store ptr %0, ptr %4, align 8, !tbaa !6
  store ptr %1, ptr %5, align 8, !tbaa !11
  call void @llvm.lifetime.start.p0(i64 8, ptr %6) #13
  %11 = load ptr, ptr %4, align 8, !tbaa !6
  store ptr %11, ptr %6, align 8, !tbaa !18
  %12 = load ptr, ptr %6, align 8, !tbaa !18
  %13 = getelementptr inbounds nuw %struct.dt_imageio_png_t, ptr %12, i32 0, i32 4
  %14 = load ptr, ptr %13, align 8, !tbaa !85
  %15 = call ptr @png_set_longjmp_fn(ptr noundef %14, ptr noundef @longjmp, i64 noundef 200)
  %16 = getelementptr inbounds [1 x %struct.__jmp_buf_tag], ptr %15, i64 0, i64 0
  %17 = call i32 @_setjmp(ptr noundef %16) #14
  %18 = icmp ne i32 %17, 0
  br i1 %18, label %19, label %28

19:                                               ; preds = %2
  %20 = load ptr, ptr %6, align 8, !tbaa !18
  %21 = getelementptr inbounds nuw %struct.dt_imageio_png_t, ptr %20, i32 0, i32 3
  %22 = load ptr, ptr %21, align 8, !tbaa !86
  %23 = call i32 @fclose(ptr noundef %22)
  %24 = load ptr, ptr %6, align 8, !tbaa !18
  %25 = getelementptr inbounds nuw %struct.dt_imageio_png_t, ptr %24, i32 0, i32 4
  %26 = load ptr, ptr %6, align 8, !tbaa !18
  %27 = getelementptr inbounds nuw %struct.dt_imageio_png_t, ptr %26, i32 0, i32 5
  call void @png_destroy_read_struct(ptr noundef %25, ptr noundef %27, ptr noundef null)
  store i32 1, ptr %3, align 4
  store i32 1, ptr %7, align 4
  br label %71

28:                                               ; preds = %2
  call void @llvm.lifetime.start.p0(i64 8, ptr %8) #13
  %29 = load ptr, ptr %5, align 8, !tbaa !11
  store ptr %29, ptr %8, align 8, !tbaa !11
  call void @llvm.lifetime.start.p0(i64 8, ptr %9) #13
  %30 = load ptr, ptr %6, align 8, !tbaa !18
  %31 = getelementptr inbounds nuw %struct.dt_imageio_png_t, ptr %30, i32 0, i32 4
  %32 = load ptr, ptr %31, align 8, !tbaa !85
  %33 = load ptr, ptr %6, align 8, !tbaa !18
  %34 = getelementptr inbounds nuw %struct.dt_imageio_png_t, ptr %33, i32 0, i32 5
  %35 = load ptr, ptr %34, align 8, !tbaa !87
  %36 = call i64 @png_get_rowbytes(ptr noundef %32, ptr noundef %35)
  store i64 %36, ptr %9, align 8, !tbaa !82
  call void @llvm.lifetime.start.p0(i64 4, ptr %10) #13
  store i32 0, ptr %10, align 4, !tbaa !14
  br label %37

37:                                               ; preds = %53, %28
  %38 = load i32, ptr %10, align 4, !tbaa !14
  %39 = load ptr, ptr %6, align 8, !tbaa !18
  %40 = getelementptr inbounds nuw %struct.dt_imageio_png_t, ptr %39, i32 0, i32 0
  %41 = getelementptr inbounds nuw %struct.dt_imageio_module_data_t, ptr %40, i32 0, i32 3
  %42 = load i32, ptr %41, align 4, !tbaa !26
  %43 = icmp slt i32 %38, %42
  br i1 %43, label %45, label %44

44:                                               ; preds = %37
  store i32 2, ptr %7, align 4
  call void @llvm.lifetime.end.p0(i64 4, ptr %10) #13
  br label %56

45:                                               ; preds = %37
  %46 = load ptr, ptr %6, align 8, !tbaa !18
  %47 = getelementptr inbounds nuw %struct.dt_imageio_png_t, ptr %46, i32 0, i32 4
  %48 = load ptr, ptr %47, align 8, !tbaa !85
  %49 = load ptr, ptr %8, align 8, !tbaa !11
  call void @png_read_row(ptr noundef %48, ptr noundef %49, ptr noundef null)
  %50 = load i64, ptr %9, align 8, !tbaa !82
  %51 = load ptr, ptr %8, align 8, !tbaa !11
  %52 = getelementptr inbounds nuw i8, ptr %51, i64 %50
  store ptr %52, ptr %8, align 8, !tbaa !11
  br label %53

53:                                               ; preds = %45
  %54 = load i32, ptr %10, align 4, !tbaa !14
  %55 = add nsw i32 %54, 1
  store i32 %55, ptr %10, align 4, !tbaa !14
  br label %37

56:                                               ; preds = %44
  %57 = load ptr, ptr %6, align 8, !tbaa !18
  %58 = getelementptr inbounds nuw %struct.dt_imageio_png_t, ptr %57, i32 0, i32 4
  %59 = load ptr, ptr %58, align 8, !tbaa !85
  %60 = load ptr, ptr %6, align 8, !tbaa !18
  %61 = getelementptr inbounds nuw %struct.dt_imageio_png_t, ptr %60, i32 0, i32 5
  %62 = load ptr, ptr %61, align 8, !tbaa !87
  call void @png_read_end(ptr noundef %59, ptr noundef %62)
  %63 = load ptr, ptr %6, align 8, !tbaa !18
  %64 = getelementptr inbounds nuw %struct.dt_imageio_png_t, ptr %63, i32 0, i32 4
  %65 = load ptr, ptr %6, align 8, !tbaa !18
  %66 = getelementptr inbounds nuw %struct.dt_imageio_png_t, ptr %65, i32 0, i32 5
  call void @png_destroy_read_struct(ptr noundef %64, ptr noundef %66, ptr noundef null)
  %67 = load ptr, ptr %6, align 8, !tbaa !18
  %68 = getelementptr inbounds nuw %struct.dt_imageio_png_t, ptr %67, i32 0, i32 3
  %69 = load ptr, ptr %68, align 8, !tbaa !86
  %70 = call i32 @fclose(ptr noundef %69)
  store i32 0, ptr %3, align 4
  store i32 1, ptr %7, align 4
  call void @llvm.lifetime.end.p0(i64 8, ptr %9) #13
  call void @llvm.lifetime.end.p0(i64 8, ptr %8) #13
  br label %71

71:                                               ; preds = %56, %19
  call void @llvm.lifetime.end.p0(i64 8, ptr %6) #13
  %72 = load i32, ptr %3, align 4
  ret i32 %72
}