; Function Attrs: nounwind uwtable
define range(i32 0, 2) i32 @read_image(ptr noundef %0, ptr noundef %1) local_unnamed_addr #1 {
  %3 = getelementptr inbounds nuw i8, ptr %0, i64 168
  %4 = load ptr, ptr %3, align 8, !tbaa !34
  %5 = call ptr @png_set_longjmp_fn(ptr noundef %4, ptr noundef nonnull @longjmp, i64 noundef 200) #20
  %6 = call i32 @_setjmp(ptr noundef %5) #21
  %.not = icmp eq i32 %6, 0
  br i1 %.not, label %12, label %7

7:                                                ; preds = %2
  %8 = getelementptr inbounds nuw i8, ptr %0, i64 160
  %9 = load ptr, ptr %8, align 8, !tbaa !35
  %10 = call i32 @fclose(ptr noundef %9)
  %11 = getelementptr inbounds nuw i8, ptr %0, i64 176
  call void @png_destroy_read_struct(ptr noundef nonnull %3, ptr noundef nonnull %11, ptr noundef null) #20
  br label %30

12:                                               ; preds = %2
  %13 = load ptr, ptr %3, align 8, !tbaa !34
  %14 = getelementptr inbounds nuw i8, ptr %0, i64 176
  %15 = load ptr, ptr %14, align 8, !tbaa !36
  %16 = call i64 @png_get_rowbytes(ptr noundef %13, ptr noundef %15) #20
  %17 = getelementptr inbounds nuw i8, ptr %0, i64 12
  %18 = load i32, ptr %17, align 4, !tbaa !16
  %19 = icmp sgt i32 %18, 0
  br i1 %19, label %.lr.ph, label %._crit_edge

._crit_edge:                                      ; preds = %.lr.ph, %12
  %20 = load ptr, ptr %3, align 8, !tbaa !34
  %21 = load ptr, ptr %14, align 8, !tbaa !36
  call void @png_read_end(ptr noundef %20, ptr noundef %21) #20
  call void @png_destroy_read_struct(ptr noundef nonnull %3, ptr noundef nonnull %14, ptr noundef null) #20
  %22 = getelementptr inbounds nuw i8, ptr %0, i64 160
  %23 = load ptr, ptr %22, align 8, !tbaa !35
  %24 = call i32 @fclose(ptr noundef %23)
  br label %30

.lr.ph:                                           ; preds = %12, %.lr.ph
  %.023 = phi i32 [ %27, %.lr.ph ], [ 0, %12 ]
  %.02122 = phi ptr [ %26, %.lr.ph ], [ %1, %12 ]
  %25 = load ptr, ptr %3, align 8, !tbaa !34
  call void @png_read_row(ptr noundef %25, ptr noundef %.02122, ptr noundef null) #20
  %26 = getelementptr inbounds nuw i8, ptr %.02122, i64 %16
  %27 = add nuw nsw i32 %.023, 1
  %28 = load i32, ptr %17, align 4, !tbaa !16
  %29 = icmp slt i32 %27, %28
  br i1 %29, label %.lr.ph, label %._crit_edge

30:                                               ; preds = %._crit_edge, %7
  %.020 = phi i32 [ 1, %7 ], [ 0, %._crit_edge ]
  ret i32 %.020
}